; Function Attrs: nounwind uwtable
define dso_local ptr @make_ands_explicit(ptr noundef %0) local_unnamed_addr #0 {
  %2 = icmp eq ptr %0, null
  br i1 %2, label %3, label %list_length.exit

3:                                                ; preds = %1
  %4 = tail call noundef ptr @palloc0(i64 noundef 40) #7
  store i32 7, ptr %4, align 4
  %5 = getelementptr inbounds nuw i8, ptr %4, i64 4
  store i32 16, ptr %5, align 4
  %6 = getelementptr inbounds nuw i8, ptr %4, i64 8
  store i32 -1, ptr %6, align 8
  %7 = getelementptr inbounds nuw i8, ptr %4, i64 12
  store i32 0, ptr %7, align 4
  %8 = getelementptr inbounds nuw i8, ptr %4, i64 16
  store i32 1, ptr %8, align 8
  %9 = getelementptr inbounds nuw i8, ptr %4, i64 24
  store i64 1, ptr %9, align 8
  %10 = getelementptr inbounds nuw i8, ptr %4, i64 32
  store i8 0, ptr %10, align 8
  %11 = getelementptr inbounds nuw i8, ptr %4, i64 33
  store i8 1, ptr %11, align 1
  %12 = getelementptr inbounds nuw i8, ptr %4, i64 36
  store i32 -1, ptr %12, align 4
  br label %24

list_length.exit:                                 ; preds = %1
  %13 = getelementptr inbounds nuw i8, ptr %0, i64 4
  %14 = load i32, ptr %13, align 4
  %15 = icmp eq i32 %14, 1
  br i1 %15, label %16, label %19

16:                                               ; preds = %list_length.exit
  %17 = getelementptr i8, ptr %0, i64 16
  %.val = load ptr, ptr %17, align 8
  %18 = load ptr, ptr %.val, align 8
  br label %24

19:                                               ; preds = %list_length.exit
  %20 = tail call noundef ptr @palloc0(i64 noundef 24) #7
  store i32 21, ptr %20, align 4
  %21 = getelementptr inbounds nuw i8, ptr %20, i64 4
  store i32 0, ptr %21, align 4
  %22 = getelementptr inbounds nuw i8, ptr %20, i64 8
  store ptr %0, ptr %22, align 8
  %23 = getelementptr inbounds nuw i8, ptr %20, i64 16
  store i32 -1, ptr %23, align 8
  br label %24

24:                                               ; preds = %19, %16, %3
  %.0 = phi ptr [ %4, %3 ], [ %18, %16 ], [ %20, %19 ]
  ret ptr %.0
}